; Function Attrs: mustprogress uwtable
define void @_ZNK6opencc15SimpleConverter7ConvertERKNSt7__cxx1112basic_stringIcSt11char_traitsIcESaIcEEE(ptr dead_on_unwind noalias writable sret(%"class.std::__cxx11::basic_string") align 8 %0, ptr noundef nonnull readonly align 8 captures(none) dereferenceable(8) %1, ptr noundef nonnull align 8 dereferenceable(32) %2) local_unnamed_addr #3 align 2 personality ptr @__gxx_personality_v0 {
  %4 = load ptr, ptr %1, align 8, !tbaa !34
  %5 = load ptr, ptr %4, align 8, !tbaa !20
  invoke void @_ZNK6opencc9Converter7ConvertERKNSt7__cxx1112basic_stringIcSt11char_traitsIcESaIcEEE(ptr dead_on_unwind writable sret(%"class.std::__cxx11::basic_string") align 8 %0, ptr noundef nonnull align 8 dereferenceable(64) %5, ptr noundef nonnull align 8 dereferenceable(32) %2)
          to label %6 unwind label %7

6:                                                ; preds = %3
  ret void

7:                                                ; preds = %3
  %8 = landingpad { ptr, i32 }
          cleanup
          catch ptr @_ZTIN6opencc9ExceptionE
  %9 = extractvalue { ptr, i32 } %8, 1
  %10 = tail call i32 @llvm.eh.typeid.for.p0(ptr nonnull @_ZTIN6opencc9ExceptionE) #21
  %11 = icmp eq i32 %9, %10
  br i1 %11, label %12, label %26

12:                                               ; preds = %7
  %13 = extractvalue { ptr, i32 } %8, 0
  %14 = tail call ptr @__cxa_begin_catch(ptr %13) #21
  %15 = tail call ptr @__cxa_allocate_exception(i64 16) #21
  %16 = load ptr, ptr %14, align 8, !tbaa !31
  %17 = getelementptr inbounds nuw i8, ptr %16, i64 16
  %18 = load ptr, ptr %17, align 8
  %19 = tail call noundef ptr %18(ptr noundef nonnull align 8 dereferenceable(40) %14) #21
  invoke void @_ZNSt13runtime_errorC1EPKc(ptr noundef nonnull align 8 dereferenceable(16) %15, ptr noundef %19)
          to label %20 unwind label %21

20:                                               ; preds = %12
  invoke void @__cxa_throw(ptr nonnull %15, ptr nonnull @_ZTISt13runtime_error, ptr nonnull @_ZNSt13runtime_errorD1Ev) #24
          to label %30 unwind label %23

21:                                               ; preds = %12
  %22 = landingpad { ptr, i32 }
          cleanup
  tail call void @__cxa_free_exception(ptr nonnull %15) #21
  br label %25

23:                                               ; preds = %20
  %24 = landingpad { ptr, i32 }
          cleanup
  br label %25

25:                                               ; preds = %23, %21
  %.pn = phi { ptr, i32 } [ %24, %23 ], [ %22, %21 ]
  invoke void @__cxa_end_catch()
          to label %26 unwind label %27

26:                                               ; preds = %25, %7
  %.merged = phi { ptr, i32 } [ %8, %7 ], [ %.pn, %25 ]
  resume { ptr, i32 } %.merged

27:                                               ; preds = %25
  %28 = landingpad { ptr, i32 }
          catch ptr null
  %29 = extractvalue { ptr, i32 } %28, 0
  tail call void @__clang_call_terminate(ptr %29) #25
  unreachable

30:                                               ; preds = %20
  unreachable
}